(dp0
S'rms'
p1
cnumpy.core.multiarray
scalar
p2
(cnumpy
dtype
p3
(S'f8'
p4
I0
I1
tp5
Rp6
(I3
S'<'
p7
NNNI-1
I-1
I0
tp8
bS'B\xfe\xda\xc0\xb7=\x10@'
p9
tp10
Rp11
sS'std_mod_obs'
p12
g2
(g6
S'\xf1\xc4\xd8%\x9b\xfb\x19@'
p13
tp14
Rp15
sS'std_obs'
p16
g2
(g6
S'#>\xf3\xda\xb3\xd3\x12@'
p17
tp18
Rp19
sS'corr_coef'
p20
g2
(g6
S'ah\xbe\x01"\x0c\xe9?'
p21
tp22
Rp23
sS'rmse'
p24
g2
(g6
S'\xd6\x88\xec\xf6\x8f^\x10@'
p25
tp26
Rp27
s.