(dp0
S'rms'
p1
cnumpy.core.multiarray
scalar
p2
(cnumpy
dtype
p3
(S'f8'
p4
I0
I1
tp5
Rp6
(I3
S'<'
p7
NNNI-1
I-1
I0
tp8
bS'\xc3\x08+\xb4\x03[\xf6?'
p9
tp10
Rp11
sS'std_mod_obs'
p12
g2
(g6
S'\xc5O\x12\x0b\x1b\x8a\x11@'
p13
tp14
Rp15
sS'std_obs'
p16
g2
(g6
S'\x94tye\xfb\xa4\x12@'
p17
tp18
Rp19
sS'corr_coef'
p20
g2
(g6
S'\xc6*\xa2\xaf\r\x88\xee?'
p21
tp22
Rp23
sS'rmse'
p24
g2
(g6
S'\x83\xbc\xe24\x0c\\\xf6?'
p25
tp26
Rp27
s.