(dp0
S'rms'
p1
cnumpy.core.multiarray
scalar
p2
(cnumpy
dtype
p3
(S'f8'
p4
I0
I1
tp5
Rp6
(I3
S'<'
p7
NNNI-1
I-1
I0
tp8
bS'y\xa8\xed\xbft\xc6\xf5?'
p9
tp10
Rp11
sS'std_mod_obs'
p12
g2
(g6
S'\xa9\x86F;\x1c\x99\x11@'
p13
tp14
Rp15
sS'std_obs'
p16
g2
(g6
S'\x94tye\xfb\xa4\x12@'
p17
tp18
Rp19
sS'corr_coef'
p20
g2
(g6
S"4'\xadt\xb6\x9b\xee?"
p21
tp22
Rp23
sS'rmse'
p24
g2
(g6
S'\x10\xb1T\x94\xf0\xc6\xf5?'
p25
tp26
Rp27
s.