(dp0
S'rms'
p1
cnumpy.core.multiarray
scalar
p2
(cnumpy
dtype
p3
(S'f8'
p4
I0
I1
tp5
Rp6
(I3
S'<'
p7
NNNI-1
I-1
I0
tp8
bS'\xd8r\xe7\x92\x14\xbc\x0e@'
p9
tp10
Rp11
sS'std_mod_obs'
p12
g2
(g6
S'\xd7EKk\xd66\x1a@'
p13
tp14
Rp15
sS'std_obs'
p16
g2
(g6
S'#>\xf3\xda\xb3\xd3\x12@'
p17
tp18
Rp19
sS'corr_coef'
p20
g2
(g6
S'h\x03\x18\xd8\xf9\x1c\xea?'
p21
tp22
Rp23
sS'rmse'
p24
g2
(g6
S'$\x91\xf4\x0f\xa4\xbe\x0e@'
p25
tp26
Rp27
s.