(dp0
S'rms'
p1
cnumpy.core.multiarray
scalar
p2
(cnumpy
dtype
p3
(S'f8'
p4
I0
I1
tp5
Rp6
(I3
S'<'
p7
NNNI-1
I-1
I0
tp8
bS'\xbd\xa1i\xef\xdc\xa0\x12@'
p9
tp10
Rp11
sS'std_mod_obs'
p12
g2
(g6
S'P\xe7\x15\xd6\xb8=\xf5?'
p13
tp14
Rp15
sS'std_obs'
p16
g2
(g6
S'">\xf3\xda\xb3\xd3\x12@'
p17
tp18
Rp19
sS'corr_coef'
p20
g2
(g6
S'|\x1b\x1bQ4\xd0\xc6?'
p21
tp22
Rp23
sS'rmse'
p24
g2
(g6
S'\xdd\xf2\x04\x1dH\x18\x16@'
p25
tp26
Rp27
s.