(dp0
S'rms'
p1
cnumpy.core.multiarray
scalar
p2
(cnumpy
dtype
p3
(S'f8'
p4
I0
I1
tp5
Rp6
(I3
S'<'
p7
NNNI-1
I-1
I0
tp8
bS'p\x92\xd0+;\xcf\x06@'
p9
tp10
Rp11
sS'std_mod_obs'
p12
g2
(g6
S'\x02n"b\xb2*\x15@'
p13
tp14
Rp15
sS'std_obs'
p16
g2
(g6
S'">\xf3\xda\xb3\xd3\x12@'
p17
tp18
Rp19
sS'corr_coef'
p20
g2
(g6
S'[T\x1fNa\xff\xea?'
p21
tp22
Rp23
sS'rmse'
p24
g2
(g6
S'y\xdd\x06m@\xf0\x07@'
p25
tp26
Rp27
s.