(dp0
S'rms'
p1
cnumpy.core.multiarray
scalar
p2
(cnumpy
dtype
p3
(S'f8'
p4
I0
I1
tp5
Rp6
(I3
S'<'
p7
NNNI-1
I-1
I0
tp8
bS'^\x85\xa7\x14k\xbf\x14@'
p9
tp10
Rp11
sS'std_mod_obs'
p12
g2
(g6
S'%\x80\xff\xf5]8\x1f@'
p13
tp14
Rp15
sS'std_obs'
p16
g2
(g6
S'">\xf3\xda\xb3\xd3\x12@'
p17
tp18
Rp19
sS'corr_coef'
p20
g2
(g6
S'\x06\xed$\xd5\x90v\xe8?'
p21
tp22
Rp23
sS'rmse'
p24
g2
(g6
S'\x08)\xe4\x1b\xf8\xe4\x14@'
p25
tp26
Rp27
s.