(dp0
S'rms'
p1
cnumpy.core.multiarray
scalar
p2
(cnumpy
dtype
p3
(S'f8'
p4
I0
I1
tp5
Rp6
(I3
S'<'
p7
NNNI-1
I-1
I0
tp8
bS'#p\xfbF\xf9\xda\xf5?'
p9
tp10
Rp11
sS'std_mod_obs'
p12
g2
(g6
S'\x96?\x12\x8d@\xb7\x11@'
p13
tp14
Rp15
sS'std_obs'
p16
g2
(g6
S'\x94tye\xfb\xa4\x12@'
p17
tp18
Rp19
sS'corr_coef'
p20
g2
(g6
S',w\x00\x9a|\x98\xee?'
p21
tp22
Rp23
sS'rmse'
p24
g2
(g6
S'\x16a\xafx\xa0\xe6\xf5?'
p25
tp26
Rp27
s.